target datalayout = "e-m:e-p270:32:32-p271:32:32-p272:64:64-i64:64-i128:128-f80:128-n8:16:32:64-S128"
target triple = "x86_64-pc-linux-gnu"

%struct.APK_DATA_st = type { ptr, i64, i32 }

@mainctx = internal global ptr null, align 8
@.str.28 = private unnamed_addr constant [34 x i8] c"../openssl/test/evp_extra_test2.c\00", align 1
@.str.187 = private unnamed_addr constant [69 x i8] c"pkey = d2i_AutoPrivateKey_ex(NULL, &pdata, pdata_len, mainctx, NULL)\00", align 1
@.str.188 = private unnamed_addr constant [67 x i8] c"EVP_PKEY_export(pkey, EVP_PKEY_KEYPAIR, test_pkey_export_cb, pkey)\00", align 1
@.str.189 = private unnamed_addr constant [67 x i8] c"EVP_PKEY_export(pkey, EVP_PKEY_KEYPAIR, test_pkey_export_cb, NULL)\00", align 1
@.str.190 = private unnamed_addr constant [49 x i8] c"rsa = d2i_RSAPrivateKey(NULL, &pdata, pdata_len)\00", align 1
@.str.191 = private unnamed_addr constant [22 x i8] c"pkey = EVP_PKEY_new()\00", align 1
@.str.192 = private unnamed_addr constant [31 x i8] c"EVP_PKEY_assign_RSA(pkey, rsa)\00", align 1

; Function Attrs: nounwind uwtable
define internal i32 @test_pkey_export() #0 {
  %1 = alloca ptr, align 8
  %2 = alloca ptr, align 8
  %3 = alloca i32, align 4
  %4 = alloca ptr, align 8
  %5 = alloca i32, align 4
  call void @llvm.lifetime.start.p0(i64 8, ptr %1) #7
  store ptr null, ptr %1, align 8, !tbaa !13
  call void @llvm.lifetime.start.p0(i64 8, ptr %2) #7
  store ptr null, ptr %2, align 8, !tbaa !42
  call void @llvm.lifetime.start.p0(i64 4, ptr %3) #7
  store i32 1, ptr %3, align 4, !tbaa !11
  call void @llvm.lifetime.start.p0(i64 8, ptr %4) #7
  %6 = load ptr, ptr @keydata, align 16, !tbaa !17
  store ptr %6, ptr %4, align 8, !tbaa !21
  call void @llvm.lifetime.start.p0(i64 4, ptr %5) #7
  %7 = load i64, ptr getelementptr inbounds nuw (%struct.APK_DATA_st, ptr @keydata, i32 0, i32 1), align 8, !tbaa !22
  %8 = trunc i64 %7 to i32
  store i32 %8, ptr %5, align 4, !tbaa !11
  %9 = load i32, ptr %5, align 4, !tbaa !11
  %10 = sext i32 %9 to i64
  %11 = load ptr, ptr @mainctx, align 8, !tbaa !4
  %12 = call ptr @d2i_AutoPrivateKey_ex(ptr noundef null, ptr noundef %4, i64 noundef %10, ptr noundef %11, ptr noundef null)
  store ptr %12, ptr %1, align 8, !tbaa !13
  %13 = call i32 @test_ptr(ptr noundef @.str.28, i32 noundef 1262, ptr noundef @.str.187, ptr noundef %12)
  %14 = icmp ne i32 %13, 0
  br i1 %14, label %15, label %30

15:                                               ; preds = %0
  %16 = load ptr, ptr %1, align 8, !tbaa !13
  %17 = load ptr, ptr %1, align 8, !tbaa !13
  %18 = call i32 @EVP_PKEY_export(ptr noundef %16, i32 noundef 135, ptr noundef @test_pkey_export_cb, ptr noundef %17)
  %19 = icmp ne i32 %18, 0
  %20 = zext i1 %19 to i32
  %21 = call i32 @test_true(ptr noundef @.str.28, i32 noundef 1264, ptr noundef @.str.188, i32 noundef %20)
  %22 = icmp ne i32 %21, 0
  br i1 %22, label %23, label %30

23:                                               ; preds = %15
  %24 = load ptr, ptr %1, align 8, !tbaa !13
  %25 = call i32 @EVP_PKEY_export(ptr noundef %24, i32 noundef 135, ptr noundef @test_pkey_export_cb, ptr noundef null)
  %26 = icmp ne i32 %25, 0
  %27 = zext i1 %26 to i32
  %28 = call i32 @test_false(ptr noundef @.str.28, i32 noundef 1266, ptr noundef @.str.189, i32 noundef %27)
  %29 = icmp ne i32 %28, 0
  br i1 %29, label %31, label %30

30:                                               ; preds = %23, %15, %0
  store i32 0, ptr %3, align 4, !tbaa !11
  br label %31

31:                                               ; preds = %30, %23
  %32 = load ptr, ptr %1, align 8, !tbaa !13
  call void @EVP_PKEY_free(ptr noundef %32)
  %33 = load ptr, ptr @keydata, align 16, !tbaa !17
  store ptr %33, ptr %4, align 8, !tbaa !21
  %34 = load i64, ptr getelementptr inbounds nuw (%struct.APK_DATA_st, ptr @keydata, i32 0, i32 1), align 8, !tbaa !22
  %35 = trunc i64 %34 to i32
  store i32 %35, ptr %5, align 4, !tbaa !11
  %36 = load i32, ptr %5, align 4, !tbaa !11
  %37 = sext i32 %36 to i64
  %38 = call ptr @d2i_RSAPrivateKey(ptr noundef null, ptr noundef %4, i64 noundef %37)
  store ptr %38, ptr %2, align 8, !tbaa !42
  %39 = call i32 @test_ptr(ptr noundef @.str.28, i32 noundef 1274, ptr noundef @.str.190, ptr noundef %38)
  %40 = icmp ne i32 %39, 0
  br i1 %40, label %41, label %68

41:                                               ; preds = %31
  %42 = call ptr @EVP_PKEY_new()
  store ptr %42, ptr %1, align 8, !tbaa !13
  %43 = call i32 @test_ptr(ptr noundef @.str.28, i32 noundef 1275, ptr noundef @.str.191, ptr noundef %42)
  %44 = icmp ne i32 %43, 0
  br i1 %44, label %45, label %68

45:                                               ; preds = %41
  %46 = load ptr, ptr %1, align 8, !tbaa !13
  %47 = load ptr, ptr %2, align 8, !tbaa !42
  %48 = call i32 @EVP_PKEY_assign(ptr noundef %46, i32 noundef 6, ptr noundef %47)
  %49 = icmp ne i32 %48, 0
  %50 = zext i1 %49 to i32
  %51 = call i32 @test_true(ptr noundef @.str.28, i32 noundef 1276, ptr noundef @.str.192, i32 noundef %50)
  %52 = icmp ne i32 %51, 0
  br i1 %52, label %53, label %68

53:                                               ; preds = %45
  %54 = load ptr, ptr %1, align 8, !tbaa !13
  %55 = load ptr, ptr %1, align 8, !tbaa !13
  %56 = call i32 @EVP_PKEY_export(ptr noundef %54, i32 noundef 135, ptr noundef @test_pkey_export_cb, ptr noundef %55)
  %57 = icmp ne i32 %56, 0
  %58 = zext i1 %57 to i32
  %59 = call i32 @test_true(ptr noundef @.str.28, i32 noundef 1278, ptr noundef @.str.188, i32 noundef %58)
  %60 = icmp ne i32 %59, 0
  br i1 %60, label %61, label %68

61:                                               ; preds = %53
  %62 = load ptr, ptr %1, align 8, !tbaa !13
  %63 = call i32 @EVP_PKEY_export(ptr noundef %62, i32 noundef 135, ptr noundef @test_pkey_export_cb, ptr noundef null)
  %64 = icmp ne i32 %63, 0
  %65 = zext i1 %64 to i32
  %66 = call i32 @test_false(ptr noundef @.str.28, i32 noundef 1280, ptr noundef @.str.189, i32 noundef %65)
  %67 = icmp ne i32 %66, 0
  br i1 %67, label %69, label %68

68:                                               ; preds = %61, %53, %45, %41, %31
  store i32 0, ptr %3, align 4, !tbaa !11
  br label %69

69:                                               ; preds = %68, %61
  %70 = load ptr, ptr %1, align 8, !tbaa !13
  call void @EVP_PKEY_free(ptr noundef %70)
  %71 = load i32, ptr %3, align 4, !tbaa !11
  call void @llvm.lifetime.end.p0(i64 4, ptr %5) #7
  call void @llvm.lifetime.end.p0(i64 8, ptr %4) #7
  call void @llvm.lifetime.end.p0(i64 4, ptr %3) #7
  call void @llvm.lifetime.end.p0(i64 8, ptr %2) #7
  call void @llvm.lifetime.end.p0(i64 8, ptr %1) #7
  ret i32 %71
}