; Function Attrs: nounwind uwtable
define internal range(i32 0, 2) i32 @test_pkey_export() #0 {
  %1 = alloca ptr, align 8
  call void @llvm.lifetime.start.p0(i64 8, ptr nonnull %1) #7
  store ptr @kExampleRSAKeyDER, ptr %1, align 8, !tbaa !18
  %2 = load ptr, ptr @mainctx, align 8, !tbaa !4
  %3 = call ptr @d2i_AutoPrivateKey_ex(ptr noundef null, ptr noundef nonnull %1, i64 noundef 608, ptr noundef %2, ptr noundef null) #7
  %4 = call i32 @test_ptr(ptr noundef nonnull @.str.28, i32 noundef 1262, ptr noundef nonnull @.str.187, ptr noundef %3) #7
  %.not = icmp eq i32 %4, 0
  br i1 %.not, label %15, label %5

5:                                                ; preds = %0
  %6 = call i32 @EVP_PKEY_export(ptr noundef %3, i32 noundef 135, ptr noundef nonnull @test_pkey_export_cb, ptr noundef %3) #7
  %7 = icmp ne i32 %6, 0
  %8 = zext i1 %7 to i32
  %9 = call i32 @test_true(ptr noundef nonnull @.str.28, i32 noundef 1264, ptr noundef nonnull @.str.188, i32 noundef %8) #7
  %.not14 = icmp eq i32 %9, 0
  br i1 %.not14, label %15, label %10

10:                                               ; preds = %5
  %11 = call i32 @EVP_PKEY_export(ptr noundef %3, i32 noundef 135, ptr noundef nonnull @test_pkey_export_cb, ptr noundef null) #7
  %12 = icmp ne i32 %11, 0
  %13 = zext i1 %12 to i32
  %14 = call i32 @test_false(ptr noundef nonnull @.str.28, i32 noundef 1266, ptr noundef nonnull @.str.189, i32 noundef %13) #7
  %.not15 = icmp eq i32 %14, 0
  br i1 %.not15, label %15, label %16

15:                                               ; preds = %10, %5, %0
  br label %16

16:                                               ; preds = %15, %10
  %.0 = phi i32 [ 1, %10 ], [ 0, %15 ]
  call void @EVP_PKEY_free(ptr noundef %3) #7
  store ptr @kExampleRSAKeyDER, ptr %1, align 8, !tbaa !18
  %17 = call ptr @d2i_RSAPrivateKey(ptr noundef null, ptr noundef nonnull %1, i64 noundef 608) #7
  %18 = call i32 @test_ptr(ptr noundef nonnull @.str.28, i32 noundef 1274, ptr noundef nonnull @.str.190, ptr noundef %17) #7
  %.not16 = icmp eq i32 %18, 0
  br i1 %.not16, label %37, label %19

19:                                               ; preds = %16
  %20 = call ptr @EVP_PKEY_new() #7
  %21 = call i32 @test_ptr(ptr noundef nonnull @.str.28, i32 noundef 1275, ptr noundef nonnull @.str.191, ptr noundef %20) #7
  %.not17 = icmp eq i32 %21, 0
  br i1 %.not17, label %37, label %22

22:                                               ; preds = %19
  %23 = call i32 @EVP_PKEY_assign(ptr noundef %20, i32 noundef 6, ptr noundef %17) #7
  %24 = icmp ne i32 %23, 0
  %25 = zext i1 %24 to i32
  %26 = call i32 @test_true(ptr noundef nonnull @.str.28, i32 noundef 1276, ptr noundef nonnull @.str.192, i32 noundef %25) #7
  %.not18 = icmp eq i32 %26, 0
  br i1 %.not18, label %37, label %27

27:                                               ; preds = %22
  %28 = call i32 @EVP_PKEY_export(ptr noundef %20, i32 noundef 135, ptr noundef nonnull @test_pkey_export_cb, ptr noundef %20) #7
  %29 = icmp ne i32 %28, 0
  %30 = zext i1 %29 to i32
  %31 = call i32 @test_true(ptr noundef nonnull @.str.28, i32 noundef 1278, ptr noundef nonnull @.str.188, i32 noundef %30) #7
  %.not19 = icmp eq i32 %31, 0
  br i1 %.not19, label %37, label %32

32:                                               ; preds = %27
  %33 = call i32 @EVP_PKEY_export(ptr noundef %20, i32 noundef 135, ptr noundef nonnull @test_pkey_export_cb, ptr noundef null) #7
  %34 = icmp ne i32 %33, 0
  %35 = zext i1 %34 to i32
  %36 = call i32 @test_false(ptr noundef nonnull @.str.28, i32 noundef 1280, ptr noundef nonnull @.str.189, i32 noundef %35) #7
  %.not20 = icmp eq i32 %36, 0
  %spec.select = select i1 %.not20, i32 0, i32 %.0
  br label %37

37:                                               ; preds = %32, %16, %19, %22, %27
  %.113 = phi ptr [ %20, %27 ], [ %20, %22 ], [ %20, %19 ], [ %3, %16 ], [ %20, %32 ]
  %.1 = phi i32 [ 0, %27 ], [ 0, %22 ], [ 0, %19 ], [ 0, %16 ], [ %spec.select, %32 ]
  call void @EVP_PKEY_free(ptr noundef %.113) #7
  call void @llvm.lifetime.end.p0(i64 8, ptr nonnull %1) #7
  ret i32 %.1
}